(dp0
S'METTS MARK'
p1
(dp2
S'to_messages'
p3
I807
sS'deferral_payments'
p4
S'NaN'
p5
sS'poi_to_person_ratio'
p6
F1.3103448275862069
sS'expenses'
p7
I94299
sS'poi'
p8
I00
sS'deferred_income'
p9
g5
sS'email_address'
p10
S'mark.metts@enron.com'
p11
sS'long_term_incentive'
p12
g5
sS'poi_ratio'
p13
F0.04665071770334928
sS'restricted_stock_deferred'
p14
g5
sS'shared_receipt_with_poi'
p15
I702
sS'loan_advances'
p16
g5
sS'from_messages'
p17
I29
sS'other'
p18
I1740
sS'director_fees'
p19
g5
sS'total_value'
p20
I1646889
sS'bonus'
p21
I600000
sS'total_stock_value'
p22
I585062
sS'from_poi_to_this_person'
p23
I38
sS'from_this_person_to_poi'
p24
I1
sS'person_to_poi_ratio'
p25
F0.0012391573729863693
sS'restricted_stock'
p26
I585062
sS'salary'
p27
I365788
sS'total_payments'
p28
I1061827
sS'exercised_stock_options'
p29
g5
ssS'BAXTER JOHN C'
p30
(dp31
g3
g5
sg4
I1295738
sg6
S'NaN'
p32
sg7
I11200
sg8
I00
sg9
I-1386055
sg10
g5
sg12
I1586055
sg13
g32
sg14
g5
sg15
g5
sg16
g5
sg17
g5
sg18
I2660303
sg19
g5
sg20
I16257601
sg21
I1200000
sg22
I10623258
sg23
g5
sg24
g5
sg25
g32
sg26
I3942714
sg27
I267102
sg28
I5634343
sg29
I6680544
ssS'ELLIOTT STEVEN'
p33
(dp34
g3
g5
sg4
g5
sg6
g32
sg7
I78552
sg8
I00
sg9
I-400729
sg10
S'steven.elliott@enron.com'
p35
sg12
g5
sg13
g32
sg14
g5
sg15
g5
sg16
g5
sg17
g5
sg18
I12961
sg19
g5
sg20
I6890460
sg21
I350000
sg22
I6678735
sg23
g5
sg24
g5
sg25
g32
sg26
I1788391
sg27
I170941
sg28
I211725
sg29
I4890344
ssS'CORDES WILLIAM R'
p36
(dp37
g3
I764
sg4
g5
sg6
F0.8333333333333334
sg7
g5
sg8
I00
sg9
g5
sg10
S'bill.cordes@enron.com'
p38
sg12
g5
sg13
F0.01288659793814433
sg14
g5
sg15
I58
sg16
g5
sg17
I12
sg18
g5
sg19
g5
sg20
g32
sg21
g5
sg22
I1038185
sg23
I10
sg24
I0
sg25
F0.0
sg26
I386335
sg27
g5
sg28
g5
sg29
I651850
ssS'HANNON KEVIN P'
p39
(dp40
g3
I1045
sg4
g5
sg6
F1.0
sg7
I34039
sg8
I01
sg9
I-3117011
sg10
S'kevin.hannon@enron.com'
p41
sg12
I1617011
sg13
F0.04921077065923862
sg14
g5
sg15
I1035
sg16
g5
sg17
I32
sg18
I11350
sg19
g5
sg20
I6679747
sg21
I1500000
sg22
I6391065
sg23
I32
sg24
I21
sg25
F0.020095693779904306
sg26
I853064
sg27
I243293
sg28
I288682
sg29
I5538001
ssS'MORDAUNT KRISTINA M'
p42
(dp43
g3
g5
sg4
g5
sg6
g32
sg7
I35018
sg8
I00
sg9
g5
sg10
S'kristina.mordaunt@enron.com'
p44
sg12
g5
sg13
g32
sg14
g5
sg15
g5
sg16
g5
sg17
g5
sg18
I1411
sg19
g5
sg20
I837032
sg21
I325000
sg22
I208510
sg23
g5
sg24
g5
sg25
g32
sg26
I208510
sg27
I267093
sg28
I628522
sg29
g5
ssS'MEYER ROCKFORD G'
p45
(dp46
g3
I232
sg4
I1848227
sg6
F0.0
sg7
g5
sg8
I00
sg9
g5
sg10
S'rockford.meyer@enron.com'
p47
sg12
g5
sg13
F0.0
sg14
g5
sg15
I22
sg16
g5
sg17
I28
sg18
g5
sg19
g5
sg20
I2804100
sg21
g5
sg22
I955873
sg23
I0
sg24
I0
sg25
F0.0
sg26
I462384
sg27
g5
sg28
I1848227
sg29
I493489
ssS'MCMAHON JEFFREY'
p48
(dp49
g3
I2355
sg4
g5
sg6
F1.2083333333333333
sg7
I137108
sg8
I00
sg9
g5
sg10
S'jeffrey.mcmahon@enron.com'
p50
sg12
I694862
sg13
F0.03495630461922597
sg14
g5
sg15
I2228
sg16
g5
sg17
I48
sg18
I297353
sg19
g5
sg20
I5762626
sg21
I2600000
sg22
I1662855
sg23
I58
sg24
I26
sg25
F0.011040339702760084
sg26
I558801
sg27
I370448
sg28
I4099771
sg29
I1104054
ssS'HORTON STANLEY C'
p51
(dp52
g3
I2350
sg4
I3131860
sg6
F0.04100652376514446
sg7
g5
sg8
I00
sg9
g5
sg10
S'stanley.horton@enron.com'
p53
sg12
g5
sg13
F0.017236342389716622
sg14
g5
sg15
I1074
sg16
g5
sg17
I1073
sg18
g5
sg19
g5
sg20
I10388508
sg21
g5
sg22
I7256648
sg23
I44
sg24
I15
sg25
F0.006382978723404255
sg26
I2046079
sg27
g5
sg28
I3131860
sg29
I5210569
ssS'PIPER GREGORY F'
p54
(dp55
g3
I1238
sg4
I1130036
sg6
F0.2747747747747748
sg7
I43057
sg8
I00
sg9
I-33333
sg10
S'greg.piper@enron.com'
p56
sg12
g5
sg13
F0.07465753424657534
sg14
I-409554
sg15
I742
sg16
g5
sg17
I222
sg18
I778
sg19
g5
sg20
I2617919
sg21
I400000
sg22
I880290
sg23
I61
sg24
I48
sg25
F0.03877221324717286
sg26
I409554
sg27
I197091
sg28
I1737629
sg29
I880290
ssS'HUMPHREY GENE E'
p57
(dp58
g3
I128
sg4
I2964506
sg6
F0.5882352941176471
sg7
I4994
sg8
I00
sg9
g5
sg10
S'gene.humphrey@enron.com'
p59
sg12
g5
sg13
F0.18620689655172415
sg14
g5
sg15
I119
sg16
g5
sg17
I17
sg18
g5
sg19
g5
sg20
I5382992
sg21
g5
sg22
I2282768
sg23
I10
sg24
I17
sg25
F0.1328125
sg26
g5
sg27
I130724
sg28
I3100224
sg29
I2282768
ssS'UMANOFF ADAM S'
p60
(dp61
g3
I111
sg4
g5
sg6
F0.6666666666666666
sg7
I53122
sg8
I00
sg9
g5
sg10
S'adam.umanoff@enron.com'
p62
sg12
g5
sg13
F0.09302325581395349
sg14
g5
sg15
I41
sg16
g5
sg17
I18
sg18
g5
sg19
g5
sg20
g32
sg21
I788750
sg22
g5
sg23
I12
sg24
I0
sg25
F0.0
sg26
g5
sg27
I288589
sg28
I1130461
sg29
g5
ssS'BLACHMAN JEREMY M'
p63
(dp64
g3
I2475
sg4
g5
sg6
F1.7857142857142858
sg7
I84208
sg8
I00
sg9
g5
sg10
S'jeremy.blachman@enron.com'
p65
sg12
I831809
sg13
F0.010847730012053034
sg14
g5
sg15
I2326
sg16
g5
sg17
I14
sg18
I272
sg19
g5
sg20
I2969189
sg21
I850000
sg22
I954354
sg23
I25
sg24
I2
sg25
F0.0008080808080808081
sg26
I189041
sg27
I248546
sg28
I2014835
sg29
I765313
ssS'SUNDE MARTIN'
p66
(dp67
g3
I2647
sg4
g5
sg6
F0.9736842105263158
sg7
g5
sg8
I00
sg9
g5
sg10
S'marty.sunde@enron.com'
p68
sg12
I476451
sg13
F0.0186219739292365
sg14
g5
sg15
I2565
sg16
g5
sg17
I38
sg18
I111122
sg19
g5
sg20
I2243979
sg21
I700000
sg22
I698920
sg23
I37
sg24
I13
sg25
F0.004911220249338874
sg26
I698920
sg27
I257486
sg28
I1545059
sg29
g5
ssS'GIBBS DANA R'
p69
(dp70
g3
I169
sg4
I504610
sg6
F0.0
sg7
g5
sg8
I00
sg9
g5
sg10
S'dana.gibbs@enron.com'
p71
sg12
I461912
sg13
F0.0
sg14
g5
sg15
I23
sg16
g5
sg17
I12
sg18
g5
sg19
g5
sg20
I3184797
sg21
g5
sg22
I2218275
sg23
I0
sg24
I0
sg25
F0.0
sg26
g5
sg27
g5
sg28
I966522
sg29
I2218275
ssS'LOWRY CHARLES P'
p72
(dp73
g3
g5
sg4
g5
sg6
g32
sg7
g5
sg8
I00
sg9
g5
sg10
g5
sg12
g5
sg13
g32
sg14
I-153686
sg15
g5
sg16
g5
sg17
g5
sg18
g5
sg19
g5
sg20
g32
sg21
g5
sg22
I372205
sg23
g5
sg24
g5
sg25
g32
sg26
I153686
sg27
g5
sg28
g5
sg29
I372205
ssS'COLWELL WESLEY'
p74
(dp75
g3
I1758
sg4
I27610
sg6
F6.0
sg7
I16514
sg8
I01
sg9
I-144062
sg10
S'wes.colwell@enron.com'
p76
sg12
g5
sg13
F0.13959955506117908
sg14
g5
sg15
I1132
sg16
g5
sg17
I40
sg18
I101740
sg19
g5
sg20
I2188586
sg21
I1200000
sg22
I698242
sg23
I240
sg24
I11
sg25
F0.006257110352673493
sg26
I698242
sg27
I288542
sg28
I1490344
sg29
g5
ssS'MULLER MARK S'
p77
(dp78
g3
I136
sg4
I842924
sg6
F0.75
sg7
g5
sg8
I00
sg9
I-719000
sg10
S's..muller@enron.com'
p79
sg12
I1725545
sg13
F0.07894736842105263
sg14
g5
sg15
I114
sg16
g5
sg17
I16
sg18
I947
sg19
g5
sg20
I4618918
sg21
I1100000
sg22
I1416848
sg23
I12
sg24
I0
sg25
F0.0
sg26
I360528
sg27
I251654
sg28
I3202070
sg29
I1056320
ssS'JACKSON CHARLENE R'
p80
(dp81
g3
I258
sg4
g5
sg6
F0.44642857142857145
sg7
I10181
sg8
I00
sg9
g5
sg10
S'charlene.jackson@enron.com'
p82
sg12
g5
sg13
F0.14012738853503184
sg14
g5
sg15
I117
sg16
g5
sg17
I56
sg18
I2435
sg19
g5
sg20
I1276909
sg21
I250000
sg22
I725735
sg23
I25
sg24
I19
sg25
F0.07364341085271318
sg26
I540672
sg27
I288558
sg28
I551174
sg29
I185063
ssS'WESTFAHL RICHARD K'
p83
(dp84
g3
g5
sg4
g5
sg6
g32
sg7
I51870
sg8
I00
sg9
I-10800
sg10
S'dick.westfahl@enron.com'
p85
sg12
I256191
sg13
g32
sg14
g5
sg15
g5
sg16
g5
sg17
g5
sg18
I401130
sg19
g5
sg20
I1147065
sg21
g5
sg22
I384930
sg23
g5
sg24
g5
sg25
g32
sg26
I384930
sg27
I63744
sg28
I762135
sg29
g5
ssS'WALTERS GARETH W'
p86
(dp87
g3
g5
sg4
I53625
sg6
g32
sg7
I33785
sg8
I00
sg9
g5
sg10
g5
sg12
g5
sg13
g32
sg14
g5
sg15
g5
sg16
g5
sg17
g5
sg18
g5
sg19
g5
sg20
I1117739
sg21
g5
sg22
I1030329
sg23
g5
sg24
g5
sg25
g32
sg26
g5
sg27
g5
sg28
I87410
sg29
I1030329
ssS'WALLS JR ROBERT H'
p88
(dp89
g3
I671
sg4
g5
sg6
F0.11643835616438356
sg7
I50936
sg8
I00
sg9
g5
sg10
S'rob.walls@enron.com'
p90
sg12
I540751
sg13
F0.0208078335373317
sg14
g5
sg15
I215
sg16
g5
sg17
I146
sg18
I2
sg19
g5
sg20
I7697777
sg21
I850000
sg22
I5898997
sg23
I17
sg24
I0
sg25
F0.0
sg26
I1552453
sg27
I357091
sg28
I1798780
sg29
I4346544
ssS'KITCHEN LOUISE'
p91
(dp92
g3
I8305
sg4
g5
sg6
F0.14525462962962962
sg7
I5774
sg8
I00
sg9
g5
sg10
S'louise.kitchen@enron.com'
p93
sg12
g5
sg13
F0.044353633011063494
sg14
g5
sg15
I3669
sg16
g5
sg17
I1728
sg18
I93925
sg19
g5
sg20
I4018284
sg21
I3100000
sg22
I547143
sg23
I251
sg24
I194
sg25
F0.023359422034918725
sg26
I466101
sg27
I271442
sg28
I3471141
sg29
I81042
ssS'CHAN RONNIE'
p94
(dp95
g3
g5
sg4
g5
sg6
g32
sg7
g5
sg8
I00
sg9
I-98784
sg10
g5
sg12
g5
sg13
g32
sg14
I-32460
sg15
g5
sg16
g5
sg17
g5
sg18
g5
sg19
I98784
sg20
g32
sg21
g5
sg22
g5
sg23
g5
sg24
g5
sg25
g32
sg26
I32460
sg27
g5
sg28
g5
sg29
g5
ssS'BELFER ROBERT'
p96
(dp97
g3
g5
sg4
I-102500
sg6
g32
sg7
g5
sg8
I00
sg9
g5
sg10
g5
sg12
g5
sg13
g32
sg14
I44093
sg15
g5
sg16
g5
sg17
g5
sg18
g5
sg19
I3285
sg20
I58407
sg21
g5
sg22
I-44093
sg23
g5
sg24
g5
sg25
g32
sg26
g5
sg27
g5
sg28
I102500
sg29
I3285
ssS'SHANKMAN JEFFREY A'
p98
(dp99
g3
I3221
sg4
g5
sg6
F0.0350615441999254
sg7
I178979
sg8
I00
sg9
g5
sg10
S'jeffrey.shankman@enron.com'
p100
sg12
I554422
sg13
F0.029989833954591663
sg14
g5
sg15
I1730
sg16
g5
sg17
I2681
sg18
I1191
sg19
g5
sg20
I5110737
sg21
I2000000
sg22
I2072035
sg23
I94
sg24
I83
sg25
F0.025768394908413535
sg26
I630137
sg27
I304110
sg28
I3038702
sg29
I1441898
ssS'WODRASKA JOHN'
p101
(dp102
g3
g5
sg4
g5
sg6
g32
sg7
g5
sg8
I00
sg9
g5
sg10
S'john.wodraska@enron.com'
p103
sg12
g5
sg13
g32
sg14
g5
sg15
g5
sg16
g5
sg17
g5
sg18
I189583
sg19
g5
sg20
g32
sg21
g5
sg22
g5
sg23
g5
sg24
g5
sg25
g32
sg26
g5
sg27
g5
sg28
I189583
sg29
g5
ssS'BERGSIEKER RICHARD P'
p104
(dp105
g3
I383
sg4
g5
sg6
F0.06779661016949153
sg7
I59175
sg8
I00
sg9
I-485813
sg10
S'rick.bergsieker@enron.com'
p106
sg12
I180250
sg13
F0.00904977375565611
sg14
g5
sg15
I233
sg16
g5
sg17
I59
sg18
I427316
sg19
g5
sg20
I1278099
sg21
I250000
sg22
I659249
sg23
I4
sg24
I0
sg25
F0.0
sg26
I659249
sg27
I187922
sg28
I618850
sg29
g5
ssS'URQUHART JOHN A'
p107
(dp108
g3
g5
sg4
g5
sg6
g32
sg7
I228656
sg8
I00
sg9
I-36666
sg10
g5
sg12
g5
sg13
g32
sg14
g5
sg15
g5
sg16
g5
sg17
g5
sg18
g5
sg19
I36666
sg20
g32
sg21
g5
sg22
g5
sg23
g5
sg24
g5
sg25
g32
sg26
g5
sg27
g5
sg28
I228656
sg29
g5
ssS'BIBI PHILIPPE A'
p109
(dp110
g3
I1607
sg4
g5
sg6
F0.575
sg7
I38559
sg8
I00
sg9
g5
sg10
S'philippe.bibi@enron.com'
p111
sg12
I369721
sg13
F0.018822100789313904
sg14
g5
sg15
I1336
sg16
g5
sg17
I40
sg18
I425688
sg19
g5
sg20
I3891409
sg21
I1000000
sg22
I1843816
sg23
I23
sg24
I8
sg25
F0.004978220286247666
sg26
I378082
sg27
I213625
sg28
I2047593
sg29
I1465734
ssS'RIEKER PAULA H'
p112
(dp113
g3
I1328
sg4
I214678
sg6
F0.4268292682926829
sg7
I33271
sg8
I01
sg9
I-100000
sg10
S'paula.rieker@enron.com'
p114
sg12
g5
sg13
F0.058865248226950356
sg14
g5
sg15
I1258
sg16
g5
sg17
I82
sg18
I1950
sg19
g5
sg20
I3017987
sg21
I700000
sg22
I1918887
sg23
I35
sg24
I48
sg25
F0.03614457831325301
sg26
I283649
sg27
I249201
sg28
I1099100
sg29
I1635238
ssS'WHALEY DAVID A'
p115
(dp116
g3
g5
sg4
g5
sg6
g32
sg7
g5
sg8
I00
sg9
g5
sg10
g5
sg12
g5
sg13
g32
sg14
g5
sg15
g5
sg16
g5
sg17
g5
sg18
g5
sg19
g5
sg20
g32
sg21
g5
sg22
I98718
sg23
g5
sg24
g5
sg25
g32
sg26
g5
sg27
g5
sg28
g5
sg29
I98718
ssS'BECK SALLY W'
p117
(dp118
g3
I7315
sg4
g5
sg6
F0.033156804052498275
sg7
I37172
sg8
I00
sg9
g5
sg10
S'sally.beck@enron.com'
p119
sg12
g5
sg13
F0.0454623434551381
sg14
g5
sg15
I2639
sg16
g5
sg17
I4343
sg18
I566
sg19
g5
sg20
I1095095
sg21
I700000
sg22
I126027
sg23
I144
sg24
I386
sg25
F0.052768284347231714
sg26
I126027
sg27
I231330
sg28
I969068
sg29
g5
ssS'HAUG DAVID L'
p120
(dp121
g3
I573
sg4
g5
sg6
F0.21052631578947367
sg7
I475
sg8
I00
sg9
g5
sg10
S'david.haug@enron.com'
p122
sg12
g5
sg13
F0.018581081081081082
sg14
g5
sg15
I471
sg16
g5
sg17
I19
sg18
g5
sg19
g5
sg20
I2217774
sg21
g5
sg22
I2217299
sg23
I4
sg24
I7
sg25
F0.012216404886561954
sg26
I2217299
sg27
g5
sg28
I475
sg29
g5
ssS'ECHOLS JOHN B'
p123
(dp124
g3
g5
sg4
g5
sg6
g32
sg7
I21530
sg8
I00
sg9
g5
sg10
S'john.echols@enron.com'
p125
sg12
I2234774
sg13
g32
sg14
g5
sg15
g5
sg16
g5
sg17
g5
sg18
I53775
sg19
g5
sg20
I3701265
sg21
I200000
sg22
I1008941
sg23
g5
sg24
g5
sg25
g32
sg26
I407503
sg27
I182245
sg28
I2692324
sg29
I601438
ssS'MENDELSOHN JOHN'
p126
(dp127
g3
g5
sg4
g5
sg6
g32
sg7
I148
sg8
I00
sg9
I-103750
sg10
g5
sg12
g5
sg13
g32
sg14
g5
sg15
g5
sg16
g5
sg17
g5
sg18
g5
sg19
I103750
sg20
g32
sg21
g5
sg22
g5
sg23
g5
sg24
g5
sg25
g32
sg26
g5
sg27
g5
sg28
I148
sg29
g5
ssS'HICKERSON GARY J'
p128
(dp129
g3
I1320
sg4
g5
sg6
F1.4814814814814814
sg7
I98849
sg8
I00
sg9
g5
sg10
S'gary.hickerson@enron.com'
p130
sg12
I69223
sg13
F0.030438010393466965
sg14
g5
sg15
I900
sg16
g5
sg17
I27
sg18
I1936
sg19
g5
sg20
I2522892
sg21
I1700000
sg22
I441096
sg23
I40
sg24
I1
sg25
F0.0007575757575757576
sg26
I441096
sg27
I211788
sg28
I2081796
sg29
g5
ssS'CLINE KENNETH W'
p131
(dp132
g3
g5
sg4
g5
sg6
g32
sg7
g5
sg8
I00
sg9
g5
sg10
g5
sg12
g5
sg13
g32
sg14
I-472568
sg15
g5
sg16
g5
sg17
g5
sg18
g5
sg19
g5
sg20
g32
sg21
g5
sg22
I189518
sg23
g5
sg24
g5
sg25
g32
sg26
I662086
sg27
g5
sg28
g5
sg29
g5
ssS'LEWIS RICHARD'
p133
(dp134
g3
I952
sg4
g5
sg6
F0.38461538461538464
sg7
g5
sg8
I00
sg9
g5
sg10
S'richard.lewis@enron.com'
p135
sg12
g5
sg13
F0.010224948875255624
sg14
g5
sg15
I739
sg16
g5
sg17
I26
sg18
g5
sg19
g5
sg20
g32
sg21
g5
sg22
I850477
sg23
I10
sg24
I0
sg25
F0.0
sg26
g5
sg27
g5
sg28
g5
sg29
I850477
ssS'HAYES ROBERT E'
p136
(dp137
g3
I504
sg4
I7961
sg6
F1.3333333333333333
sg7
g5
sg8
I00
sg9
g5
sg10
S'robert.hayes@enron.com'
p138
sg12
g5
sg13
F0.031007751937984496
sg14
g5
sg15
I50
sg16
g5
sg17
I12
sg18
g5
sg19
g5
sg20
I159379
sg21
g5
sg22
I151418
sg23
I16
sg24
I0
sg25
F0.0
sg26
I151418
sg27
g5
sg28
I7961
sg29
g5
ssS'MCCARTY DANNY J'
p139
(dp140
g3
I1433
sg4
g5
sg6
F0.11627906976744186
sg7
g5
sg8
I00
sg9
g5
sg10
S'danny.mccarty@enron.com'
p141
sg12
g5
sg13
F0.016383495145631068
sg14
g5
sg15
I508
sg16
g5
sg17
I215
sg18
g5
sg19
g5
sg20
g32
sg21
g5
sg22
I758931
sg23
I25
sg24
I2
sg25
F0.0013956734124214933
sg26
I94556
sg27
g5
sg28
g5
sg29
I664375
ssS'KOPPER MICHAEL J'
p142
(dp143
g3
g5
sg4
g5
sg6
g32
sg7
I118134
sg8
I01
sg9
g5
sg10
S'michael.kopper@enron.com'
p144
sg12
I602671
sg13
g32
sg14
g5
sg15
g5
sg16
g5
sg17
g5
sg18
I907502
sg19
g5
sg20
I3637644
sg21
I800000
sg22
I985032
sg23
g5
sg24
g5
sg25
g32
sg26
I985032
sg27
I224305
sg28
I2652612
sg29
g5
ssS'LEFF DANIEL P'
p145
(dp146
g3
I2822
sg4
g5
sg6
F1.0634920634920635
sg7
g5
sg8
I00
sg9
g5
sg10
S'dan.leff@enron.com'
p147
sg12
I1387399
sg13
F0.028076256499133447
sg14
g5
sg15
I2672
sg16
g5
sg17
I63
sg18
I3083
sg19
g5
sg20
I3024756
sg21
I1000000
sg22
I360528
sg23
I67
sg24
I14
sg25
F0.004961020552799433
sg26
I360528
sg27
I273746
sg28
I2664228
sg29
g5
ssS'LAVORATO JOHN J'
p148
(dp149
g3
I7259
sg4
g5
sg6
F0.20425531914893616
sg7
I49537
sg8
I00
sg9
g5
sg10
S'john.lavorato@enron.com'
p150
sg12
I2035380
sg13
F0.09538805363673304
sg14
g5
sg15
I3962
sg16
g5
sg17
I2585
sg18
I1552
sg19
g5
sg20
I15592901
sg21
I8000000
sg22
I5167144
sg23
I528
sg24
I411
sg25
F0.05661936905909905
sg26
I1008149
sg27
I339288
sg28
I10425757
sg29
I4158995
ssS'BERBERIAN DAVID'
p151
(dp152
g3
g5
sg4
g5
sg6
g32
sg7
I11892
sg8
I00
sg9
g5
sg10
S'david.berberian@enron.com'
p153
sg12
g5
sg13
g32
sg14
g5
sg15
g5
sg16
g5
sg17
g5
sg18
g5
sg19
g5
sg20
I2722090
sg21
g5
sg22
I2493616
sg23
g5
sg24
g5
sg25
g32
sg26
I869220
sg27
I216582
sg28
I228474
sg29
I1624396
ssS'DETMERING TIMOTHY J'
p154
(dp155
g3
g5
sg4
I875307
sg6
g32
sg7
I52255
sg8
I00
sg9
I-775241
sg10
S'timothy.detmering@enron.com'
p156
sg12
I415657
sg13
g32
sg14
I-315068
sg15
g5
sg16
g5
sg17
g5
sg18
I1105
sg19
g5
sg20
I3232448
sg21
I425000
sg22
I2027865
sg23
g5
sg24
g5
sg25
g32
sg26
I315068
sg27
I210500
sg28
I1204583
sg29
I2027865
ssS'WAKEHAM JOHN'
p157
(dp158
g3
g5
sg4
g5
sg6
g32
sg7
I103773
sg8
I00
sg9
g5
sg10
g5
sg12
g5
sg13
g32
sg14
g5
sg15
g5
sg16
g5
sg17
g5
sg18
g5
sg19
I109298
sg20
g32
sg21
g5
sg22
g5
sg23
g5
sg24
g5
sg25
g32
sg26
g5
sg27
g5
sg28
I213071
sg29
g5
ssS'POWERS WILLIAM'
p159
(dp160
g3
I653
sg4
g5
sg6
F0.0
sg7
g5
sg8
I00
sg9
I-17500
sg10
S'ken.powers@enron.com'
p161
sg12
g5
sg13
F0.0
sg14
g5
sg15
I12
sg16
g5
sg17
I26
sg18
g5
sg19
I17500
sg20
g32
sg21
g5
sg22
g5
sg23
I0
sg24
I0
sg25
F0.0
sg26
g5
sg27
g5
sg28
g5
sg29
g5
ssS'GOLD JOSEPH'
p162
(dp163
g3
g5
sg4
g5
sg6
g32
sg7
g5
sg8
I00
sg9
g5
sg10
S'joe.gold@enron.com'
p164
sg12
I304805
sg13
g32
sg14
g5
sg15
g5
sg16
g5
sg17
g5
sg18
I819288
sg19
g5
sg20
I3024584
sg21
I750000
sg22
I877611
sg23
g5
sg24
g5
sg25
g32
sg26
I441096
sg27
I272880
sg28
I2146973
sg29
I436515
ssS'BANNANTINE JAMES M'
p165
(dp166
g3
I566
sg4
g5
sg6
F1.3448275862068966
sg7
I56301
sg8
I00
sg9
I-5104
sg10
S'james.bannantine@enron.com'
p167
sg12
g5
sg13
F0.06554621848739496
sg14
I-560222
sg15
I465
sg16
g5
sg17
I29
sg18
I864523
sg19
g5
sg20
I6159684
sg21
g5
sg22
I5243487
sg23
I39
sg24
I0
sg25
F0.0
sg26
I1757552
sg27
I477
sg28
I916197
sg29
I4046157
ssS'DUNCAN JOHN H'
p168
(dp169
g3
g5
sg4
g5
sg6
g32
sg7
g5
sg8
I00
sg9
I-25000
sg10
g5
sg12
g5
sg13
g32
sg14
g5
sg15
g5
sg16
g5
sg17
g5
sg18
g5
sg19
I102492
sg20
I449242
sg21
g5
sg22
I371750
sg23
g5
sg24
g5
sg25
g32
sg26
g5
sg27
g5
sg28
I77492
sg29
I371750
ssS'SHAPIRO RICHARD S'
p170
(dp171
g3
I15149
sg4
g5
sg6
F0.060905349794238686
sg7
I137767
sg8
I00
sg9
g5
sg10
S'richard.shapiro@enron.com'
p172
sg12
g5
sg13
F0.00849425568320704
sg14
g5
sg15
I4527
sg16
g5
sg17
I1215
sg18
I705
sg19
g5
sg20
I2044549
sg21
I650000
sg22
I987001
sg23
I74
sg24
I65
sg25
F0.004290712258234867
sg26
I379164
sg27
I269076
sg28
I1057548
sg29
I607837
ssS'SHERRIFF JOHN R'
p173
(dp174
g3
I3187
sg4
g5
sg6
F0.30434782608695654
sg7
g5
sg8
I00
sg9
g5
sg10
S'john.sherriff@enron.com'
p175
sg12
I554422
sg13
F0.01555352241537054
sg14
g5
sg15
I2103
sg16
g5
sg17
I92
sg18
I1852186
sg19
g5
sg20
I7464370
sg21
I1500000
sg22
I3128982
sg23
I28
sg24
I23
sg25
F0.0072168183244430495
sg26
I1293424
sg27
I428780
sg28
I4335388
sg29
I1835558
ssS'SHELBY REX'
p176
(dp177
g3
I225
sg4
g5
sg6
F0.3333333333333333
sg7
I22884
sg8
I01
sg9
I-4167
sg10
S'rex.shelby@enron.com'
p178
sg12
g5
sg13
F0.10227272727272728
sg14
g5
sg15
I91
sg16
g5
sg17
I39
sg18
I1573324
sg19
g5
sg20
I4497501
sg21
I200000
sg22
I2493616
sg23
I13
sg24
I14
sg25
F0.06222222222222222
sg26
I869220
sg27
I211844
sg28
I2003885
sg29
I1624396
ssS'LEMAISTRE CHARLES'
p179
(dp180
g3
g5
sg4
g5
sg6
g32
sg7
g5
sg8
I00
sg9
I-25000
sg10
g5
sg12
g5
sg13
g32
sg14
g5
sg15
g5
sg16
g5
sg17
g5
sg18
g5
sg19
I112492
sg20
I500370
sg21
g5
sg22
I412878
sg23
g5
sg24
g5
sg25
g32
sg26
g5
sg27
g5
sg28
I87492
sg29
I412878
ssS'DEFFNER JOSEPH M'
p181
(dp182
g3
I714
sg4
g5
sg6
F1.554054054054054
sg7
I41626
sg8
I00
sg9
g5
sg10
S'joseph.deffner@enron.com'
p183
sg12
I335349
sg13
F0.15101522842639595
sg14
g5
sg15
I552
sg16
g5
sg17
I74
sg18
I25553
sg19
g5
sg20
I1367860
sg21
I600000
sg22
I159211
sg23
I115
sg24
I4
sg25
F0.0056022408963585435
sg26
I141833
sg27
I206121
sg28
I1208649
sg29
I17378
ssS'KISHKILL JOSEPH G'
p184
(dp185
g3
g5
sg4
g5
sg6
g32
sg7
I116335
sg8
I00
sg9
I-51042
sg10
S'joe.kishkill@enron.com'
p186
sg12
g5
sg13
g32
sg14
g5
sg15
g5
sg16
g5
sg17
g5
sg18
I465357
sg19
g5
sg20
I1739242
sg21
g5
sg22
I1034346
sg23
g5
sg24
g5
sg25
g32
sg26
I1034346
sg27
I174246
sg28
I704896
sg29
g5
ssS'WHALLEY LAWRENCE G'
p187
(dp188
g3
I6019
sg4
g5
sg6
F0.3345323741007194
sg7
I57838
sg8
I00
sg9
g5
sg10
S'greg.whalley@enron.com'
p189
sg12
I808346
sg13
F0.03193916349809886
sg14
g5
sg15
I3920
sg16
g5
sg17
I556
sg18
I301026
sg19
g5
sg20
I10756711
sg21
I3000000
sg22
I6079137
sg23
I186
sg24
I24
sg25
F0.003987373317826882
sg26
I2796177
sg27
I510364
sg28
I4677574
sg29
I3282960
ssS'MCCONNELL MICHAEL S'
p190
(dp191
g3
I3329
sg4
g5
sg6
F0.03355215171407731
sg7
I81364
sg8
I00
sg9
g5
sg10
S'mike.mcconnell@enron.com'
p192
sg12
I554422
sg13
F0.047109207708779445
sg14
g5
sg15
I2189
sg16
g5
sg17
I2742
sg18
I540
sg19
g5
sg20
I5202643
sg21
I1100000
sg22
I3101279
sg23
I92
sg24
I194
sg25
F0.058275758486031844
sg26
I1478269
sg27
I365038
sg28
I2101364
sg29
I1623010
ssS'PIRO JIM'
p193
(dp194
g3
I58
sg4
g5
sg6
F0.0
sg7
g5
sg8
I00
sg9
g5
sg10
S'jim.piro@enron.com'
p195
sg12
g5
sg13
F0.013513513513513514
sg14
g5
sg15
I3
sg16
g5
sg17
I16
sg18
g5
sg19
g5
sg20
g32
sg21
g5
sg22
I47304
sg23
I0
sg24
I1
sg25
F0.017241379310344827
sg26
I47304
sg27
g5
sg28
g5
sg29
g5
ssS'DELAINEY DAVID W'
p196
(dp197
g3
I3093
sg4
g5
sg6
F0.021505376344086023
sg7
I86174
sg8
I01
sg9
g5
sg10
S'david.delainey@enron.com'
p198
sg12
I1294981
sg13
F0.10954235637779941
sg14
g5
sg15
I2097
sg16
g5
sg17
I3069
sg18
I1661
sg19
g5
sg20
I8362240
sg21
I3000000
sg22
I3614261
sg23
I66
sg24
I609
sg25
F0.19689621726479145
sg26
I1323148
sg27
I365163
sg28
I4747979
sg29
I2291113
ssS'SULLIVAN-SHAKLOVITZ COLLEEN'
p199
(dp200
g3
g5
sg4
I181993
sg6
g32
sg7
g5
sg8
I00
sg9
g5
sg10
g5
sg12
I554422
sg13
g32
sg14
g5
sg15
g5
sg16
g5
sg17
g5
sg18
I162
sg19
g5
sg20
I2361731
sg21
I100000
sg22
I1362375
sg23
g5
sg24
g5
sg25
g32
sg26
g5
sg27
I162779
sg28
I999356
sg29
I1362375
ssS'WROBEL BRUCE'
p201
(dp202
g3
g5
sg4
g5
sg6
g32
sg7
g5
sg8
I00
sg9
g5
sg10
g5
sg12
g5
sg13
g32
sg14
g5
sg15
g5
sg16
g5
sg17
g5
sg18
g5
sg19
g5
sg20
g32
sg21
g5
sg22
I139130
sg23
g5
sg24
g5
sg25
g32
sg26
g5
sg27
g5
sg28
g5
sg29
I139130
ssS'LINDHOLM TOD A'
p203
(dp204
g3
g5
sg4
I204075
sg6
g32
sg7
I57727
sg8
I00
sg9
g5
sg10
S'tod.lindholm@enron.com'
p205
sg12
I175000
sg13
g32
sg14
g5
sg15
g5
sg16
g5
sg17
g5
sg18
I2630
sg19
g5
sg20
I3940097
sg21
I200000
sg22
I3064208
sg23
g5
sg24
g5
sg25
g32
sg26
I514847
sg27
I236457
sg28
I875889
sg29
I2549361
ssS'MEYER JEROME J'
p206
(dp207
g3
g5
sg4
g5
sg6
g32
sg7
I2151
sg8
I00
sg9
I-38346
sg10
g5
sg12
g5
sg13
g32
sg14
g5
sg15
g5
sg16
g5
sg17
g5
sg18
g5
sg19
I38346
sg20
g32
sg21
g5
sg22
g5
sg23
g5
sg24
g5
sg25
g32
sg26
g5
sg27
g5
sg28
I2151
sg29
g5
ssS'LAY KENNETH L'
p208
(dp209
g3
I4273
sg4
I202911
sg6
F3.4166666666666665
sg7
I99832
sg8
I01
sg9
I-300000
sg10
S'kenneth.lay@enron.com'
p210
sg12
I3600000
sg13
F0.03225806451612903
sg14
g5
sg15
I2411
sg16
I81525000
sg17
I36
sg18
I10359729
sg19
g5
sg20
I152669871
sg21
I7000000
sg22
I49110078
sg23
I123
sg24
I16
sg25
F0.003744441844137608
sg26
I14761694
sg27
I1072321
sg28
I103559793
sg29
I34348384
ssS'BUTTS ROBERT H'
p211
(dp212
g3
g5
sg4
g5
sg6
g32
sg7
I9410
sg8
I00
sg9
I-75000
sg10
S'bob.butts@enron.com'
p213
sg12
I175000
sg13
g32
sg14
g5
sg15
g5
sg16
g5
sg17
g5
sg18
I150656
sg19
g5
sg20
I1689201
sg21
I750000
sg22
I417619
sg23
g5
sg24
g5
sg25
g32
sg26
I417619
sg27
I261516
sg28
I1271582
sg29
g5
ssS'OLSON CINDY K'
p214
(dp215
g3
I1184
sg4
I77716
sg6
F0.38461538461538464
sg7
I63791
sg8
I00
sg9
g5
sg10
S'cindy.olson@enron.com'
p216
sg12
I100000
sg13
F0.02831715210355987
sg14
g5
sg15
I856
sg16
g5
sg17
I52
sg18
I972
sg19
g5
sg20
I3928320
sg21
I750000
sg22
I2606763
sg23
I20
sg24
I15
sg25
F0.01266891891891892
sg26
I969729
sg27
I329078
sg28
I1321557
sg29
I1637034
ssS'MCDONALD REBECCA'
p217
(dp218
g3
I894
sg4
g5
sg6
F4.153846153846154
sg7
g5
sg8
I00
sg9
g5
sg10
S'rebecca.mcdonald@enron.com'
p219
sg12
g5
sg13
F0.06063947078280044
sg14
g5
sg15
I720
sg16
g5
sg17
I13
sg18
g5
sg19
g5
sg20
g32
sg21
g5
sg22
I1691366
sg23
I54
sg24
I1
sg25
F0.0011185682326621924
sg26
I934065
sg27
g5
sg28
g5
sg29
I757301
ssS'CUMBERLAND MICHAEL S'
p220
(dp221
g3
g5
sg4
g5
sg6
g32
sg7
I22344
sg8
I00
sg9
g5
sg10
g5
sg12
I275000
sg13
g32
sg14
g5
sg15
g5
sg16
g5
sg17
g5
sg18
I713
sg19
g5
sg20
I1015896
sg21
I325000
sg22
I207940
sg23
g5
sg24
g5
sg25
g32
sg26
I207940
sg27
I184899
sg28
I807956
sg29
g5
ssS'GAHN ROBERT S'
p222
(dp223
g3
g5
sg4
I73122
sg6
g32
sg7
I50080
sg8
I00
sg9
I-1042
sg10
g5
sg12
g5
sg13
g32
sg14
g5
sg15
g5
sg16
g5
sg17
g5
sg18
I76547
sg19
g5
sg20
I1219192
sg21
I509870
sg22
I318607
sg23
g5
sg24
g5
sg25
g32
sg26
I235370
sg27
I192008
sg28
I900585
sg29
I83237
ssS'MCCLELLAN GEORGE'
p224
(dp225
g3
I1744
sg4
g5
sg6
F1.0612244897959184
sg7
I228763
sg8
I00
sg9
I-125000
sg10
S'george.mcclellan@enron.com'
p226
sg12
g5
sg13
F0.029001673173452314
sg14
g5
sg15
I1469
sg16
g5
sg17
I49
sg18
I51587
sg19
g5
sg20
I2266624
sg21
I900000
sg22
I947861
sg23
I52
sg24
I0
sg25
F0.0
sg26
I441096
sg27
I263413
sg28
I1318763
sg29
I506765
ssS'HERMANN ROBERT J'
p227
(dp228
g3
g5
sg4
g5
sg6
g32
sg7
I48357
sg8
I00
sg9
I-280000
sg10
S'robert.hermann@enron.com'
p229
sg12
I150000
sg13
g32
sg14
g5
sg15
g5
sg16
g5
sg17
g5
sg18
I416441
sg19
g5
sg20
I1965593
sg21
I700000
sg22
I668132
sg23
g5
sg24
g5
sg25
g32
sg26
I480632
sg27
I262663
sg28
I1297461
sg29
I187500
ssS'SCRIMSHAW MATTHEW'
p230
(dp231
g3
g5
sg4
g5
sg6
g32
sg7
g5
sg8
I00
sg9
g5
sg10
S'matthew.scrimshaw@enron.com'
p232
sg12
g5
sg13
g32
sg14
g5
sg15
g5
sg16
g5
sg17
g5
sg18
g5
sg19
g5
sg20
g32
sg21
g5
sg22
I759557
sg23
g5
sg24
g5
sg25
g32
sg26
g5
sg27
g5
sg28
g5
sg29
I759557
ssS'GATHMANN WILLIAM D'
p233
(dp234
g3
g5
sg4
g5
sg6
g32
sg7
g5
sg8
I00
sg9
g5
sg10
g5
sg12
g5
sg13
g32
sg14
I-72419
sg15
g5
sg16
g5
sg17
g5
sg18
g5
sg19
g5
sg20
g32
sg21
g5
sg22
I1945360
sg23
g5
sg24
g5
sg25
g32
sg26
I264013
sg27
g5
sg28
g5
sg29
I1753766
ssS'HAEDICKE MARK E'
p235
(dp236
g3
I4009
sg4
I2157527
sg6
F0.09273570324574962
sg7
I76169
sg8
I00
sg9
I-934484
sg10
S'mark.haedicke@enron.com'
p237
sg12
I983346
sg13
F0.04050420168067227
sg14
I-329825
sg15
I1847
sg16
g5
sg17
I1941
sg18
I52382
sg19
g5
sg20
I4662159
sg21
I1150000
sg22
I803094
sg23
I180
sg24
I61
sg25
F0.015215764529807932
sg26
I524169
sg27
I374125
sg28
I3859065
sg29
I608750
ssS'BOWEN JR RAYMOND M'
p238
(dp239
g3
I1858
sg4
g5
sg6
F5.185185185185185
sg7
I65907
sg8
I01
sg9
I-833
sg10
S'raymond.bowen@enron.com'
p240
sg12
I974293
sg13
F0.08222811671087533
sg14
g5
sg15
I1593
sg16
g5
sg17
I27
sg18
I1621
sg19
g5
sg20
I2921644
sg21
I1350000
sg22
I252055
sg23
I140
sg24
I15
sg25
F0.008073196986006458
sg26
I252055
sg27
I278601
sg28
I2669589
sg29
g5
ssS'GILLIS JOHN'
p241
(dp242
g3
g5
sg4
g5
sg6
g32
sg7
g5
sg8
I00
sg9
g5
sg10
g5
sg12
g5
sg13
g32
sg14
g5
sg15
g5
sg16
g5
sg17
g5
sg18
g5
sg19
g5
sg20
g32
sg21
g5
sg22
I85641
sg23
g5
sg24
g5
sg25
g32
sg26
I75838
sg27
g5
sg28
g5
sg29
I9803
ssS'FITZGERALD JAY L'
p243
(dp244
g3
I936
sg4
g5
sg6
F0.0625
sg7
I23870
sg8
I00
sg9
g5
sg10
S'jay.fitzgerald@enron.com'
p245
sg12
I556416
sg13
F0.009453781512605041
sg14
g5
sg15
I723
sg16
g5
sg17
I16
sg18
I285414
sg19
g5
sg20
I3036093
sg21
I350000
sg22
I1621236
sg23
I1
sg24
I8
sg25
F0.008547008547008548
sg26
I956775
sg27
I199157
sg28
I1414857
sg29
I664461
ssS'MORAN MICHAEL P'
p246
(dp247
g3
I672
sg4
g5
sg6
F0.0
sg7
g5
sg8
I00
sg9
g5
sg10
S'michael.moran@enron.com'
p248
sg12
g5
sg13
F0.0
sg14
g5
sg15
I127
sg16
g5
sg17
I19
sg18
g5
sg19
g5
sg20
g32
sg21
g5
sg22
I221141
sg23
I0
sg24
I0
sg25
F0.0
sg26
I161602
sg27
g5
sg28
g5
sg29
I59539
ssS'REDMOND BRIAN L'
p249
(dp250
g3
I1671
sg4
g5
sg6
F0.9230769230769231
sg7
I14689
sg8
I00
sg9
g5
sg10
S'brian.redmond@enron.com'
p251
sg12
g5
sg13
F0.13372093023255813
sg14
g5
sg15
I1063
sg16
g5
sg17
I221
sg18
g5
sg19
g5
sg20
I8001853
sg21
g5
sg22
I7890324
sg23
I204
sg24
I49
sg25
F0.029323758228605626
sg26
I381285
sg27
I96840
sg28
I111529
sg29
I7509039
ssS'BAZELIDES PHILIP J'
p252
(dp253
g3
g5
sg4
I684694
sg6
g32
sg7
g5
sg8
I00
sg9
g5
sg10
g5
sg12
I93750
sg13
g32
sg14
g5
sg15
g5
sg16
g5
sg17
g5
sg18
I874
sg19
g5
sg20
I2459777
sg21
g5
sg22
I1599641
sg23
g5
sg24
g5
sg25
g32
sg26
g5
sg27
I80818
sg28
I860136
sg29
I1599641
ssS'BELDEN TIMOTHY N'
p254
(dp255
g3
I7991
sg4
I2144013
sg6
F0.47107438016528924
sg7
I17355
sg8
I01
sg9
I-2334434
sg10
S'tim.belden@enron.com'
p256
sg12
g5
sg13
F0.03964601769911504
sg14
g5
sg15
I5521
sg16
g5
sg17
I484
sg18
I210698
sg19
g5
sg20
I6612335
sg21
I5249999
sg22
I1110705
sg23
I228
sg24
I108
sg25
F0.013515204605180828
sg26
I157569
sg27
I213999
sg28
I5501630
sg29
I953136
ssS'DURAN WILLIAM D'
p257
(dp258
g3
I904
sg4
g5
sg6
F8.833333333333334
sg7
I25785
sg8
I00
sg9
g5
sg10
S'w.duran@enron.com'
p259
sg12
I1105218
sg13
F0.11899563318777293
sg14
g5
sg15
I599
sg16
g5
sg17
I12
sg18
I1568
sg19
g5
sg20
I3734173
sg21
I750000
sg22
I1640910
sg23
I106
sg24
I3
sg25
F0.00331858407079646
sg26
I189041
sg27
I210692
sg28
I2093263
sg29
I1451869
ssS'THORN TERENCE H'
p260
(dp261
g3
I266
sg4
I16586
sg6
F0.0
sg7
I46145
sg8
I00
sg9
g5
sg10
S'terence.thorn@enron.com'
p262
sg12
I200000
sg13
F0.0
sg14
g5
sg15
I73
sg16
g5
sg17
I41
sg18
I426629
sg19
g5
sg20
I5729249
sg21
g5
sg22
I4817796
sg23
I0
sg24
I0
sg25
F0.0
sg26
I365320
sg27
I222093
sg28
I911453
sg29
I4452476
ssS'FASTOW ANDREW S'
p263
(dp264
g3
g5
sg4
g5
sg6
g32
sg7
I55921
sg8
I01
sg9
I-1386055
sg10
S'andrew.fastow@enron.com'
p265
sg12
I1736055
sg13
g32
sg14
g5
sg15
g5
sg16
g5
sg17
g5
sg18
I277464
sg19
g5
sg20
I4218495
sg21
I1300000
sg22
I1794412
sg23
g5
sg24
g5
sg25
g32
sg26
I1794412
sg27
I440698
sg28
I2424083
sg29
g5
ssS'FOY JOE'
p266
(dp267
g3
I57
sg4
I181755
sg6
F0.0
sg7
g5
sg8
I00
sg9
g5
sg10
S'tracy.foy@enron.com'
p268
sg12
g5
sg13
F0.0
sg14
g5
sg15
I2
sg16
g5
sg17
I13
sg18
g5
sg19
g5
sg20
I525189
sg21
g5
sg22
I343434
sg23
I0
sg24
I0
sg25
F0.0
sg26
g5
sg27
g5
sg28
I181755
sg29
I343434
ssS'CALGER CHRISTOPHER F'
p269
(dp270
g3
I2598
sg4
g5
sg6
F1.3819444444444444
sg7
I35818
sg8
I01
sg9
I-262500
sg10
S'christopher.calger@enron.com'
p271
sg12
I375304
sg13
F0.08169219547775347
sg14
g5
sg15
I2188
sg16
g5
sg17
I144
sg18
I486
sg19
g5
sg20
I1765324
sg21
I1250000
sg22
I126027
sg23
I199
sg24
I25
sg25
F0.00962278675904542
sg26
I126027
sg27
I240189
sg28
I1639297
sg29
g5
ssS'RICE KENNETH D'
p272
(dp273
g3
I905
sg4
g5
sg6
F2.3333333333333335
sg7
I46950
sg8
I01
sg9
I-3504386
sg10
S'ken.rice@enron.com'
p274
sg12
I1617011
sg13
F0.04983748645720477
sg14
g5
sg15
I864
sg16
g5
sg17
I18
sg18
I174839
sg19
g5
sg20
I23047589
sg21
I1750000
sg22
I22542539
sg23
I42
sg24
I4
sg25
F0.004419889502762431
sg26
I2748364
sg27
I420636
sg28
I505050
sg29
I19794175
ssS'KAMINSKI WINCENTY J'
p275
(dp276
g3
I4607
sg4
g5
sg6
F0.002853563474387528
sg7
I83585
sg8
I00
sg9
g5
sg10
S'vince.kaminski@enron.com'
p277
sg12
I323466
sg13
F0.011172595520421607
sg14
g5
sg15
I583
sg16
g5
sg17
I14368
sg18
I4669
sg19
g5
sg20
I2062858
sg21
I400000
sg22
I976037
sg23
I41
sg24
I171
sg25
F0.03711742999782939
sg26
I126027
sg27
I275101
sg28
I1086821
sg29
I850010
ssS'LOCKHART EUGENE E'
p278
(dp279
g3
g5
sg4
g5
sg6
g32
sg7
g5
sg8
I00
sg9
g5
sg10
g5
sg12
g5
sg13
g32
sg14
g5
sg15
g5
sg16
g5
sg17
g5
sg18
g5
sg19
g5
sg20
g32
sg21
g5
sg22
g5
sg23
g5
sg24
g5
sg25
g32
sg26
g5
sg27
g5
sg28
g5
sg29
g5
ssS'COX DAVID'
p280
(dp281
g3
I102
sg4
g5
sg6
F0.0
sg7
I27861
sg8
I00
sg9
I-41250
sg10
S'chip.cox@enron.com'
p282
sg12
g5
sg13
F0.02962962962962963
sg14
g5
sg15
I71
sg16
g5
sg17
I33
sg18
I494
sg19
g5
sg20
I1597026
sg21
I800000
sg22
I495633
sg23
I0
sg24
I4
sg25
F0.0392156862745098
sg26
I378082
sg27
I314288
sg28
I1101393
sg29
I117551
ssS'OVERDYKE JR JERE C'
p283
(dp284
g3
g5
sg4
g5
sg6
g32
sg7
I18834
sg8
I00
sg9
g5
sg10
S'jere.overdyke@enron.com'
p285
sg12
I135836
sg13
g32
sg14
g5
sg15
g5
sg16
g5
sg17
g5
sg18
I176
sg19
g5
sg20
I7557381
sg21
g5
sg22
I7307594
sg23
g5
sg24
g5
sg25
g32
sg26
I2041016
sg27
I94941
sg28
I249787
sg29
I5266578
ssS'PEREIRA PAULO V. FERRAZ'
p286
(dp287
g3
g5
sg4
g5
sg6
g32
sg7
I27942
sg8
I00
sg9
I-101250
sg10
g5
sg12
g5
sg13
g32
sg14
g5
sg15
g5
sg16
g5
sg17
g5
sg18
g5
sg19
I101250
sg20
g32
sg21
g5
sg22
g5
sg23
g5
sg24
g5
sg25
g32
sg26
g5
sg27
g5
sg28
I27942
sg29
g5
ssS'STABLER FRANK'
p288
(dp289
g3
g5
sg4
g5
sg6
g32
sg7
I16514
sg8
I00
sg9
g5
sg10
S'frank.stabler@enron.com'
p290
sg12
g5
sg13
g32
sg14
g5
sg15
g5
sg16
g5
sg17
g5
sg18
I356071
sg19
g5
sg20
I1623821
sg21
I500000
sg22
I511734
sg23
g5
sg24
g5
sg25
g32
sg26
I511734
sg27
I239502
sg28
I1112087
sg29
g5
ssS'SKILLING JEFFREY K'
p291
(dp292
g3
I3627
sg4
g5
sg6
F0.8148148148148148
sg7
I29336
sg8
I01
sg9
g5
sg10
S'jeff.skilling@enron.com'
p293
sg12
I1920000
sg13
F0.03159303882195449
sg14
g5
sg15
I2042
sg16
g5
sg17
I108
sg18
I22122
sg19
g5
sg20
I34776388
sg21
I5600000
sg22
I26093672
sg23
I88
sg24
I30
sg25
F0.008271298593879239
sg26
I6843672
sg27
I1111258
sg28
I8682716
sg29
I19250000
ssS'BLAKE JR. NORMAN P'
p294
(dp295
g3
g5
sg4
g5
sg6
g32
sg7
I1279
sg8
I00
sg9
I-113784
sg10
g5
sg12
g5
sg13
g32
sg14
g5
sg15
g5
sg16
g5
sg17
g5
sg18
g5
sg19
I113784
sg20
g32
sg21
g5
sg22
g5
sg23
g5
sg24
g5
sg25
g32
sg26
g5
sg27
g5
sg28
I1279
sg29
g5
ssS'SHERRICK JEFFREY B'
p296
(dp297
g3
I613
sg4
g5
sg6
F1.56
sg7
g5
sg8
I00
sg9
g5
sg10
S'jeffrey.sherrick@enron.com'
p298
sg12
g5
sg13
F0.08934169278996865
sg14
g5
sg15
I583
sg16
g5
sg17
I25
sg18
g5
sg19
g5
sg20
g32
sg21
g5
sg22
I1832468
sg23
I39
sg24
I18
sg25
F0.02936378466557912
sg26
I405999
sg27
g5
sg28
g5
sg29
I1426469
ssS'PRENTICE JAMES'
p299
(dp300
g3
g5
sg4
I564348
sg6
g32
sg7
g5
sg8
I00
sg9
g5
sg10
S'james.prentice@enron.com'
p301
sg12
g5
sg13
g32
sg14
g5
sg15
g5
sg16
g5
sg17
g5
sg18
g5
sg19
g5
sg20
I1659388
sg21
g5
sg22
I1095040
sg23
g5
sg24
g5
sg25
g32
sg26
I208809
sg27
g5
sg28
I564348
sg29
I886231
ssS'GRAY RODNEY'
p302
(dp303
g3
g5
sg4
I93585
sg6
g32
sg7
g5
sg8
I00
sg9
g5
sg10
g5
sg12
I365625
sg13
g32
sg14
g5
sg15
g5
sg16
g5
sg17
g5
sg18
I680833
sg19
g5
sg20
g32
sg21
g5
sg22
g5
sg23
g5
sg24
g5
sg25
g32
sg26
g5
sg27
I6615
sg28
I1146658
sg29
g5
ssS'PICKERING MARK R'
p304
(dp305
g3
I898
sg4
g5
sg6
F0.1044776119402985
sg7
I31653
sg8
I00
sg9
g5
sg10
S'mark.pickering@enron.com'
p306
sg12
g5
sg13
F0.007253886010362694
sg14
g5
sg15
I728
sg16
I400000
sg17
I67
sg18
g5
sg19
g5
sg20
I1415488
sg21
I300000
sg22
I28798
sg23
I7
sg24
I0
sg25
F0.0
sg26
g5
sg27
I655037
sg28
I1386690
sg29
I28798
ssS'NOLES JAMES L'
p307
(dp308
g3
g5
sg4
I774401
sg6
g32
sg7
g5
sg8
I00
sg9
g5
sg10
g5
sg12
g5
sg13
g32
sg14
I-94556
sg15
g5
sg16
g5
sg17
g5
sg18
g5
sg19
g5
sg20
I1143106
sg21
g5
sg22
I368705
sg23
g5
sg24
g5
sg25
g32
sg26
I463261
sg27
g5
sg28
I774401
sg29
g5
ssS'KEAN STEVEN J'
p309
(dp310
g3
I12754
sg4
g5
sg6
F0.020713123243083296
sg7
I41953
sg8
I00
sg9
g5
sg10
S'steven.kean@enron.com'
p311
sg12
I300000
sg13
F0.02700763593501768
sg14
g5
sg15
I3639
sg16
g5
sg17
I6759
sg18
I1231
sg19
g5
sg20
I7901164
sg21
I1000000
sg22
I6153642
sg23
I140
sg24
I387
sg25
F0.03034342167163243
sg26
I4131594
sg27
I404338
sg28
I1747522
sg29
I2022048
ssS'FOWLER PEGGY'
p312
(dp313
g3
I517
sg4
g5
sg6
F0.0
sg7
g5
sg8
I00
sg9
g5
sg10
S'kulvinder.fowler@enron.com'
p314
sg12
g5
sg13
F0.0
sg14
g5
sg15
I10
sg16
g5
sg17
I36
sg18
g5
sg19
g5
sg20
g32
sg21
g5
sg22
I1884748
sg23
I0
sg24
I0
sg25
F0.0
sg26
I560170
sg27
g5
sg28
g5
sg29
I1324578
ssS'WASAFF GEORGE'
p315
(dp316
g3
I400
sg4
I831299
sg6
F0.7333333333333333
sg7
g5
sg8
I00
sg9
I-583325
sg10
S'george.wasaff@enron.com'
p317
sg12
I200000
sg13
F0.06744186046511629
sg14
g5
sg15
I337
sg16
g5
sg17
I30
sg18
I1425
sg19
g5
sg20
I3090822
sg21
I325000
sg22
I2056427
sg23
I22
sg24
I7
sg25
F0.0175
sg26
I388167
sg27
I259996
sg28
I1034395
sg29
I1668260
ssS'WHITE JR THOMAS E'
p318
(dp319
g3
g5
sg4
g5
sg6
g32
sg7
I81353
sg8
I00
sg9
g5
sg10
S'thomas.white@enron.com'
p320
sg12
g5
sg13
g32
sg14
g5
sg15
g5
sg16
g5
sg17
g5
sg18
I1085463
sg19
g5
sg20
I17078482
sg21
I450000
sg22
I15144123
sg23
g5
sg24
g5
sg25
g32
sg26
I13847074
sg27
I317543
sg28
I1934359
sg29
I1297049
ssS'CHRISTODOULOU DIOMEDES'
p321
(dp322
g3
g5
sg4
g5
sg6
g32
sg7
g5
sg8
I00
sg9
g5
sg10
S'diomedes.christodoulou@enron.com'
p323
sg12
g5
sg13
g32
sg14
g5
sg15
g5
sg16
g5
sg17
g5
sg18
g5
sg19
g5
sg20
g32
sg21
g5
sg22
I6077885
sg23
g5
sg24
g5
sg25
g32
sg26
I950730
sg27
g5
sg28
g5
sg29
I5127155
ssS'ALLEN PHILLIP K'
p324
(dp325
g3
I2902
sg4
I2869717
sg6
F0.0214123006833713
sg7
I13868
sg8
I00
sg9
I-3081055
sg10
S'phillip.allen@enron.com'
p326
sg12
I304805
sg13
F0.0219737100255052
sg14
I-126027
sg15
I1407
sg16
g5
sg17
I2195
sg18
I152
sg19
g5
sg20
I6213983
sg21
I4175000
sg22
I1729541
sg23
I47
sg24
I65
sg25
F0.022398345968297727
sg26
I126027
sg27
I201955
sg28
I4484442
sg29
I1729541
ssS'SHARP VICTORIA T'
p327
(dp328
g3
I3136
sg4
I187469
sg6
F0.17647058823529413
sg7
I116337
sg8
I00
sg9
g5
sg10
S'vicki.sharp@enron.com'
p329
sg12
I422158
sg13
F0.009168704156479218
sg14
g5
sg15
I2477
sg16
g5
sg17
I136
sg18
I2401
sg19
g5
sg20
I2070647
sg21
I600000
sg22
I494136
sg23
I24
sg24
I6
sg25
F0.001913265306122449
sg26
I213063
sg27
I248146
sg28
I1576511
sg29
I281073
ssS'JAEDICKE ROBERT'
p330
(dp331
g3
g5
sg4
g5
sg6
g32
sg7
g5
sg8
I00
sg9
I-25000
sg10
g5
sg12
g5
sg13
g32
sg14
I-44093
sg15
g5
sg16
g5
sg17
g5
sg18
g5
sg19
I108750
sg20
I515500
sg21
g5
sg22
I431750
sg23
g5
sg24
g5
sg25
g32
sg26
I44093
sg27
g5
sg28
I83750
sg29
I431750
ssS'WINOKUR JR. HERBERT S'
p332
(dp333
g3
g5
sg4
g5
sg6
g32
sg7
I1413
sg8
I00
sg9
I-25000
sg10
g5
sg12
g5
sg13
g32
sg14
g5
sg15
g5
sg16
g5
sg17
g5
sg18
g5
sg19
I108579
sg20
g32
sg21
g5
sg22
g5
sg23
g5
sg24
g5
sg25
g32
sg26
g5
sg27
g5
sg28
I84992
sg29
g5
ssS'BROWN MICHAEL'
p334
(dp335
g3
I1486
sg4
g5
sg6
F0.3170731707317073
sg7
I49288
sg8
I00
sg9
g5
sg10
S'michael.brown@enron.com'
p336
sg12
g5
sg13
F0.0091683038637852
sg14
g5
sg15
I761
sg16
g5
sg17
I41
sg18
g5
sg19
g5
sg20
g32
sg21
g5
sg22
g5
sg23
I13
sg24
I1
sg25
F0.0006729475100942127
sg26
g5
sg27
g5
sg28
I49288
sg29
g5
ssS'BADUM JAMES P'
p337
(dp338
g3
g5
sg4
I178980
sg6
g32
sg7
I3486
sg8
I00
sg9
g5
sg10
g5
sg12
g5
sg13
g32
sg14
g5
sg15
g5
sg16
g5
sg17
g5
sg18
g5
sg19
g5
sg20
I440283
sg21
g5
sg22
I257817
sg23
g5
sg24
g5
sg25
g32
sg26
g5
sg27
g5
sg28
I182466
sg29
I257817
ssS'HUGHES JAMES A'
p339
(dp340
g3
I719
sg4
g5
sg6
F1.0294117647058822
sg7
g5
sg8
I00
sg9
g5
sg10
S'james.hughes@enron.com'
p341
sg12
g5
sg13
F0.05312084993359894
sg14
g5
sg15
I589
sg16
g5
sg17
I34
sg18
g5
sg19
g5
sg20
g32
sg21
g5
sg22
I1118394
sg23
I35
sg24
I5
sg25
F0.006954102920723227
sg26
I363428
sg27
g5
sg28
g5
sg29
I754966
ssS'REYNOLDS LAWRENCE'
p342
(dp343
g3
g5
sg4
I51365
sg6
g32
sg7
I8409
sg8
I00
sg9
I-200000
sg10
g5
sg12
I156250
sg13
g32
sg14
I-140264
sg15
g5
sg16
g5
sg17
g5
sg18
I202052
sg19
g5
sg20
I4616366
sg21
I100000
sg22
I4221891
sg23
g5
sg24
g5
sg25
g32
sg26
I201483
sg27
I76399
sg28
I394475
sg29
I4160672
ssS'DIMICHELE RICHARD G'
p344
(dp345
g3
g5
sg4
g5
sg6
g32
sg7
I35812
sg8
I00
sg9
g5
sg10
S'richard.dimichele@enron.com'
p346
sg12
I694862
sg13
g32
sg14
g5
sg15
g5
sg16
g5
sg17
g5
sg18
I374689
sg19
g5
sg20
I10685933
sg21
I1000000
sg22
I8317782
sg23
g5
sg24
g5
sg25
g32
sg26
I126027
sg27
I262788
sg28
I2368151
sg29
I8191755
ssS'BHATNAGAR SANJAY'
p347
(dp348
g3
I523
sg4
g5
sg6
F0.0
sg7
g5
sg8
I00
sg9
g5
sg10
S'sanjay.bhatnagar@enron.com'
p349
sg12
g5
sg13
F0.0018115942028985507
sg14
I15456290
sg15
I463
sg16
g5
sg17
I29
sg18
I137864
sg19
I137864
sg20
g32
sg21
g5
sS'total_stock_value'
p350
S'NaN'
p351
sg23
I0
sg24
I1
sg25
F0.0019120458891013384
sg26
I-2604490
sg27
g5
sg28
I15456290
sg29
I2604490
ssS'CARTER REBECCA C'
p352
(dp353
g3
I312
sg4
g5
sg6
F1.9333333333333333
sg7
g5
sg8
I00
sg9
I-159792
sg10
S'rebecca.carter@enron.com'
p354
sg12
I75000
sg13
F0.11009174311926606
sg14
I-307301
sg15
I196
sg16
g5
sg17
I15
sg18
I540
sg19
g5
sg20
g32
sg21
I300000
sg22
g5
sg23
I29
sg24
I7
sg25
F0.022435897435897436
sg26
I307301
sg27
I261809
sg28
I477557
sg29
g5
ssS'BUCHANAN HAROLD G'
p355
(dp356
g3
I1088
sg4
g5
sg6
F0.0
sg7
I600
sg8
I00
sg9
g5
sg10
S'john.buchanan@enron.com'
p357
sg12
I304805
sg13
F0.0
sg14
g5
sg15
I23
sg16
g5
sg17
I125
sg18
I1215
sg19
g5
sg20
I2069142
sg21
I500000
sg22
I1014505
sg23
I0
sg24
I0
sg25
F0.0
sg26
I189041
sg27
I248017
sg28
I1054637
sg29
I825464
ssS'YEAP SOON'
p358
(dp359
g3
g5
sg4
g5
sg6
g32
sg7
I55097
sg8
I00
sg9
g5
sg10
g5
sg12
g5
sg13
g32
sg14
g5
sg15
g5
sg16
g5
sg17
g5
sg18
g5
sg19
g5
sg20
I247855
sg21
g5
sg22
I192758
sg23
g5
sg24
g5
sg25
g32
sg26
g5
sg27
g5
sg28
I55097
sg29
I192758
ssS'MURRAY JULIA H'
p360
(dp361
g3
I2192
sg4
g5
sg6
F0.24444444444444444
sg7
I57580
sg8
I00
sg9
g5
sg10
S'julia.murray@enron.com'
p362
sg12
I125000
sg13
F0.00581135449262405
sg14
g5
sg15
I395
sg16
g5
sg17
I45
sg18
I330
sg19
g5
sg20
I1409655
sg21
I400000
sg22
I597461
sg23
I11
sg24
I2
sg25
F0.0009124087591240876
sg26
I196983
sg27
I229284
sg28
I812194
sg29
I400478
ssS'GARLAND C KEVIN'
p363
(dp364
g3
I209
sg4
g5
sg6
F0.22727272727272727
sg7
I48405
sg8
I00
sg9
g5
sg10
S'kevin.garland@enron.com'
p365
sg12
I375304
sg13
F0.14624505928853754
sg14
g5
sg15
I178
sg16
g5
sg17
I44
sg18
I60814
sg19
g5
sg20
I2462622
sg21
I850000
sg22
I896153
sg23
I10
sg24
I27
sg25
F0.1291866028708134
sg26
I259907
sg27
I231946
sg28
I1566469
sg29
I636246
ssS'DODSON KEITH'
p366
(dp367
g3
I176
sg4
g5
sg6
F0.7142857142857143
sg7
I28164
sg8
I00
sg9
g5
sg10
S'keith.dodson@enron.com'
p368
sg12
g5
sg13
F0.06842105263157895
sg14
g5
sg15
I114
sg16
g5
sg17
I14
sg18
I774
sg19
g5
sg20
g32
sg21
I70000
sg22
g5
sg23
I10
sg24
I3
sg25
F0.017045454545454544
sg26
g5
sg27
I221003
sg28
I319941
sg29
g5
ssS'YEAGER F SCOTT'
p369
(dp370
g3
g5
sg4
g5
sg6
g32
sg7
I53947
sg8
I01
sg9
g5
sg10
S'scott.yeager@enron.com'
p371
sg12
g5
sg13
g32
sg14
g5
sg15
g5
sg16
g5
sg17
g5
sg18
I147950
sg19
g5
sg20
I12245058
sg21
g5
sg22
I11884758
sg23
g5
sg24
g5
sg25
g32
sg26
I3576206
sg27
I158403
sg28
I360300
sg29
I8308552
ssS'HIRKO JOSEPH'
p372
(dp373
g3
g5
sg4
I10259
sg6
g32
sg7
I77978
sg8
I01
sg9
g5
sg10
S'joe.hirko@enron.com'
p374
sg12
g5
sg13
g32
sg14
g5
sg15
g5
sg16
g5
sg17
g5
sg18
I2856
sg19
g5
sg20
I30857157
sg21
g5
sg22
I30766064
sg23
g5
sg24
g5
sg25
g32
sg26
g5
sg27
g5
sg28
I91093
sg29
I30766064
ssS'DIETRICH JANET R'
p375
(dp376
g3
I2572
sg4
g5
sg6
F4.841269841269841
sg7
I3475
sg8
I00
sg9
g5
sg10
S'janet.dietrich@enron.com'
p377
sg12
I556416
sg13
F0.12106261859582543
sg14
g5
sg15
I1902
sg16
g5
sg17
I63
sg18
I473
sg19
g5
sg20
I3275551
sg21
I600000
sg22
I1865087
sg23
I305
sg24
I14
sg25
F0.005443234836702955
sg26
I315068
sg27
I250100
sg28
I1410464
sg29
I1550019
ssS'DERRICK JR. JAMES V'
p378
(dp379
g3
I2181
sg4
g5
sg6
F0.0704070407040704
sg7
I51124
sg8
I00
sg9
I-1284000
sg10
S'james.derrick@enron.com'
p380
sg12
I484000
sg13
F0.027184466019417475
sg14
I-1787380
sg15
I1401
sg16
g5
sg17
I909
sg18
I7482
sg19
g5
sg20
I9382894
sg21
I800000
sg22
I8831913
sg23
I64
sg24
I20
sg25
F0.009170105456212746
sg26
I1787380
sg27
I492375
sg28
I550981
sg29
I8831913
ssS'FREVERT MARK A'
p381
(dp382
g3
I3275
sg4
I6426990
sg6
F11.523809523809524
sg7
I86987
sg8
I00
sg9
I-3367011
sg10
S'mark.frevert@enron.com'
p383
sg12
I1617011
sg13
F0.07524271844660194
sg14
g5
sg15
I2979
sg16
I2000000
sg17
I21
sg18
I7427621
sg19
g5
sg20
I31874715
sg21
I2000000
sg22
I14622185
sg23
I242
sg24
I6
sg25
F0.00183206106870229
sg26
I4188667
sg27
I1060932
sg28
I17252530
sg29
I10433518
ssS'PAI LOU L'
p384
(dp385
g3
g5
sg4
g5
sg6
g32
sg7
I32047
sg8
I00
sg9
g5
sg10
S'lou.pai@enron.com'
p386
sg12
g5
sg13
g32
sg14
g5
sg15
g5
sg16
g5
sg17
g5
sg18
I1829457
sg19
g5
sg20
I26941313
sg21
I1000000
sg22
I23817930
sg23
g5
sg24
g5
sg25
g32
sg26
I8453763
sg27
I261879
sg28
I3123383
sg29
I15364167
ssS'BAY FRANKLIN R'
p387
(dp388
g3
g5
sg4
I260455
sg6
g32
sg7
I129142
sg8
I00
sg9
I-201641
sg10
S'frank.bay@enron.com'
p389
sg12
g5
sg13
g32
sg14
I-82782
sg15
g5
sg16
g5
sg17
g5
sg18
I69
sg19
g5
sg20
I890710
sg21
I400000
sg22
I63014
sg23
g5
sg24
g5
sg25
g32
sg26
I145796
sg27
I239671
sg28
I827696
sg29
g5
ssS'HAYSLETT RODERICK J'
p390
(dp391
g3
I2649
sg4
g5
sg6
F0.03298774740810556
sg7
g5
sg8
I00
sg9
g5
sg10
S'rod.hayslett@enron.com'
p392
sg12
g5
sg13
F0.019676549865229112
sg14
g5
sg15
I571
sg16
g5
sg17
I1061
sg18
g5
sg19
g5
sg20
g32
sg21
g5
sg22
I346663
sg23
I35
sg24
I38
sg25
F0.014345035862589657
sg26
I346663
sg27
g5
sg28
g5
sg29
g5
ssS'FUGH JOHN L'
p393
(dp394
g3
g5
sg4
I50591
sg6
g32
sg7
g5
sg8
I00
sg9
g5
sg10
g5
sg12
g5
sg13
g32
sg14
g5
sg15
g5
sg16
g5
sg17
g5
sg18
g5
sg19
g5
sg20
I226969
sg21
g5
sg22
I176378
sg23
g5
sg24
g5
sg25
g32
sg26
g5
sg27
g5
sg28
I50591
sg29
I176378
ssS'FALLON JAMES B'
p395
(dp396
g3
I1755
sg4
g5
sg6
F0.56
sg7
I95924
sg8
I00
sg9
g5
sg10
S'jim.fallon@enron.com'
p397
sg12
I374347
sg13
F0.04316939890710383
sg14
g5
sg15
I1604
sg16
g5
sg17
I75
sg18
I401481
sg19
g5
sg20
I6008739
sg21
I2500000
sg22
I2332399
sg23
I42
sg24
I37
sg25
F0.021082621082621083
sg26
I1392142
sg27
I304588
sg28
I3676340
sg29
I940257
ssS'KOENIG MARK E'
p398
(dp399
g3
I2374
sg4
g5
sg6
F0.8688524590163934
sg7
I127017
sg8
I01
sg9
g5
sg10
S'mark.koenig@enron.com'
p400
sg12
I300000
sg13
F0.02792607802874743
sg14
g5
sg15
I2271
sg16
g5
sg17
I61
sg18
I150458
sg19
g5
sg20
I3507476
sg21
I700000
sg22
I1920055
sg23
I53
sg24
I15
sg25
F0.006318449873631003
sg26
I1248318
sg27
I309946
sg28
I1587421
sg29
I671737
ssS'SAVAGE FRANK'
p401
(dp402
g3
g5
sg4
g5
sg6
g32
sg7
g5
sg8
I00
sg9
I-121284
sg10
g5
sg12
g5
sg13
g32
sg14
g5
sg15
g5
sg16
g5
sg17
g5
sg18
g5
sg19
I125034
sg20
g32
sg21
g5
sg22
g5
sg23
g5
sg24
g5
sg25
g32
sg26
g5
sg27
g5
sg28
I3750
sg29
g5
ssS'IZZO LAWRENCE L'
p403
(dp404
g3
I496
sg4
g5
sg6
F1.4736842105263157
sg7
I28093
sg8
I00
sg9
g5
sg10
S'larry.izzo@enron.com'
p405
sg12
I312500
sg13
F0.06407766990291262
sg14
g5
sg15
I437
sg16
g5
sg17
I19
sg18
I1553729
sg19
g5
sg20
I7799576
sg21
g5
sg22
I5819980
sg23
I28
sg24
I5
sg25
F0.010080645161290322
sg26
I3654808
sg27
I85274
sg28
I1979596
sg29
I2165172
ssS'TILNEY ELIZABETH A'
p406
(dp407
g3
I460
sg4
g5
sg6
F0.5263157894736842
sg7
g5
sg8
I00
sg9
I-575000
sg10
S'elizabeth.tilney@enron.com'
p408
sg12
I275000
sg13
F0.04384133611691023
sg14
g5
sg15
I379
sg16
g5
sg17
I19
sg18
I152055
sg19
g5
sg20
I1567435
sg21
I300000
sg22
I1168042
sg23
I10
sg24
I11
sg25
F0.02391304347826087
sg26
I576792
sg27
I247338
sg28
I399393
sg29
I591250
ssS'MARTIN AMANDA K'
p409
(dp410
g3
I1522
sg4
I85430
sg6
F0.034782608695652174
sg7
I8211
sg8
I00
sg9
g5
sg10
S'a..martin@enron.com'
p411
sg12
I5145434
sg13
F0.0045662100456621
sg14
g5
sg15
I477
sg16
g5
sg17
I230
sg18
I2818454
sg19
g5
sg20
I10477322
sg21
g5
sg22
I2070306
sg23
I8
sg24
I0
sg25
F0.0
sg26
g5
sg27
I349487
sg28
I8407016
sg29
I2070306
ssS'BUY RICHARD B'
p412
(dp413
g3
I3523
sg4
I649584
sg6
F0.14814814814814814
sg7
g5
sg8
I00
sg9
I-694862
sg10
S'rick.buy@enron.com'
p414
sg12
I769862
sg13
F0.04960664335664336
sg14
g5
sg15
I2333
sg16
g5
sg17
I1053
sg18
I400572
sg19
g5
sg20
I5800172
sg21
I900000
sg22
I3444470
sg23
I156
sg24
I71
sg25
F0.02015327845586148
sg26
I901657
sg27
I330546
sg28
I2355702
sg29
I2542813
ssS'GRAMM WENDY L'
p415
(dp416
g3
g5
sg4
g5
sg6
g32
sg7
g5
sg8
I00
sg9
g5
sg10
g5
sg12
g5
sg13
g32
sg14
g5
sg15
g5
sg16
g5
sg17
g5
sg18
g5
sg19
I119292
sg20
g32
sg21
g5
sg22
g5
sg23
g5
sg24
g5
sg25
g32
sg26
g5
sg27
g5
sg28
I119292
sg29
g5
ssS'CAUSEY RICHARD A'
p417
(dp418
g3
I1892
sg4
g5
sg6
F1.183673469387755
sg7
I30674
sg8
I01
sg9
I-235000
sg10
S'richard.causey@enron.com'
p419
sg12
I350000
sg13
F0.03606388459556929
sg14
g5
sg15
I1585
sg16
g5
sg17
I49
sg18
I307895
sg19
g5
sg20
I4370821
sg21
I1000000
sg22
I2502063
sg23
I58
sg24
I12
sg25
F0.006342494714587738
sg26
I2502063
sg27
I415189
sg28
I1868758
sg29
g5
ssS'TAYLOR MITCHELL S'
p420
(dp421
g3
I533
sg4
I227449
sg6
F0.0
sg7
g5
sg8
I00
sg9
g5
sg10
S'mitchell.taylor@enron.com'
p422
sg12
g5
sg13
F0.0
sg14
g5
sg15
I300
sg16
g5
sg17
I29
sg18
g5
sg19
g5
sg20
I4837711
sg21
I600000
sg22
I3745048
sg23
I0
sg24
I0
sg25
F0.0
sg26
I563798
sg27
I265214
sg28
I1092663
sg29
I3181250
ssS'DONAHUE JR JEFFREY M'
p423
(dp424
g3
I865
sg4
g5
sg6
F8.545454545454545
sg7
I96268
sg8
I00
sg9
I-300000
sg10
S'jeff.donahue@enron.com'
p425
sg12
g5
sg13
F0.22435174746335965
sg14
g5
sg15
I772
sg16
g5
sg17
I22
sg18
I891
sg19
g5
sg20
I1956748
sg21
I800000
sg22
I1080988
sg23
I188
sg24
I11
sg25
F0.012716763005780347
sg26
I315068
sg27
I278601
sg28
I875760
sg29
I765920
ssS'GLISAN JR BEN F'
p426
(dp427
g3
I873
sg4
g5
sg6
F3.25
sg7
I125978
sg8
I01
sg9
g5
sg10
S'ben.glisan@enron.com'
p428
sg12
I71023
sg13
F0.06524184476940383
sg14
g5
sg15
I874
sg16
g5
sg17
I16
sg18
I200308
sg19
g5
sg20
I2050830
sg21
I600000
sg22
I778546
sg23
I52
sg24
I6
sg25
F0.006872852233676976
sg26
I393818
sg27
I274975
sg28
I1272284
sg29
I384728
ss.